; Function Attrs: nounwind uwtable
define ptr @l_Lean_Elab_Structural_mkBRecOnConst___lambda__4___boxed(ptr noundef %0, ptr noundef %1, ptr noundef %2, ptr noundef %3, ptr noundef %4) #0 {
  %6 = ptrtoint ptr %1 to i64
  %7 = lshr i64 %6, 1
  %8 = trunc i64 %7 to i8
  %9 = and i64 %6, 1
  %.not = icmp eq i64 %9, 0
  br i1 %.not, label %10, label %lean_dec.exit10

10:                                               ; preds = %5
  %11 = load i32, ptr %1, align 4, !tbaa !8
  %12 = icmp sgt i32 %11, 1
  br i1 %12, label %13, label %15, !prof !11

13:                                               ; preds = %10
  %14 = add nsw i32 %11, -1
  store i32 %14, ptr %1, align 4, !tbaa !8
  br label %lean_dec.exit10

15:                                               ; preds = %10
  %.not.i = icmp eq i32 %11, 0
  br i1 %.not.i, label %lean_dec.exit10, label %16

16:                                               ; preds = %15
  tail call void @lean_dec_ref_cold(ptr noundef nonnull %1) #6
  br label %lean_dec.exit10

lean_dec.exit10:                                  ; preds = %16, %15, %13, %5
  %17 = tail call ptr @l_Lean_Elab_Structural_IndGroupInst_brecOn(ptr noundef %0, i8 noundef zeroext %8, ptr noundef %2, ptr noundef %4) #6
  %18 = tail call ptr @l_Lean_mkAppN(ptr noundef %17, ptr noundef %3) #6
  %19 = ptrtoint ptr %4 to i64
  %20 = and i64 %19, 1
  %.not15 = icmp eq i64 %20, 0
  br i1 %.not15, label %21, label %lean_dec.exit9

21:                                               ; preds = %lean_dec.exit10
  %22 = load i32, ptr %4, align 4, !tbaa !8
  %23 = icmp sgt i32 %22, 1
  br i1 %23, label %24, label %26, !prof !11

24:                                               ; preds = %21
  %25 = add nsw i32 %22, -1
  store i32 %25, ptr %4, align 4, !tbaa !8
  br label %lean_dec.exit9

26:                                               ; preds = %21
  %.not.i11 = icmp eq i32 %22, 0
  br i1 %.not.i11, label %lean_dec.exit9, label %27

27:                                               ; preds = %26
  tail call void @lean_dec_ref_cold(ptr noundef nonnull %4) #6
  br label %lean_dec.exit9

lean_dec.exit9:                                   ; preds = %27, %26, %24, %lean_dec.exit10
  %28 = ptrtoint ptr %3 to i64
  %29 = and i64 %28, 1
  %.not16 = icmp eq i64 %29, 0
  br i1 %.not16, label %30, label %lean_dec.exit

30:                                               ; preds = %lean_dec.exit9
  %31 = load i32, ptr %3, align 4, !tbaa !8
  %32 = icmp sgt i32 %31, 1
  br i1 %32, label %33, label %35, !prof !11

33:                                               ; preds = %30
  %34 = add nsw i32 %31, -1
  store i32 %34, ptr %3, align 4, !tbaa !8
  br label %lean_dec.exit

35:                                               ; preds = %30
  %.not.i13 = icmp eq i32 %31, 0
  br i1 %.not.i13, label %lean_dec.exit, label %36

36:                                               ; preds = %35
  tail call void @lean_dec_ref_cold(ptr noundef nonnull %3) #6
  br label %lean_dec.exit

lean_dec.exit:                                    ; preds = %36, %35, %33, %lean_dec.exit9
  ret ptr %18
}